; Function Attrs: mustprogress uwtable
define hidden void @_ZN17opencv_tensorflow13OpDef_AttrDef5ClearEv(ptr noundef nonnull align 8 dereferenceable(72) %0) unnamed_addr #3 align 2 {
  %2 = getelementptr inbounds nuw i8, ptr %0, i64 16
  tail call void @_ZN6google8protobuf8internal14ArenaStringPtr12ClearToEmptyEv(ptr noundef nonnull align 8 dereferenceable(8) %2)
  %3 = getelementptr inbounds nuw i8, ptr %0, i64 24
  tail call void @_ZN6google8protobuf8internal14ArenaStringPtr12ClearToEmptyEv(ptr noundef nonnull align 8 dereferenceable(8) %3)
  %4 = getelementptr inbounds nuw i8, ptr %0, i64 32
  tail call void @_ZN6google8protobuf8internal14ArenaStringPtr12ClearToEmptyEv(ptr noundef nonnull align 8 dereferenceable(8) %4)
  %5 = getelementptr inbounds nuw i8, ptr %0, i64 8
  %6 = load i64, ptr %5, align 8, !tbaa !3
  %7 = and i64 %6, 1
  %.not.i = icmp eq i64 %7, 0
  %8 = and i64 %6, -4
  %9 = inttoptr i64 %8 to ptr
  br i1 %.not.i, label %_ZNK6google8protobuf11MessageLite21GetArenaForAllocationEv.exit, label %10, !prof !16

10:                                               ; preds = %1
  %11 = load ptr, ptr %9, align 8, !tbaa !17
  br label %_ZNK6google8protobuf11MessageLite21GetArenaForAllocationEv.exit

_ZNK6google8protobuf11MessageLite21GetArenaForAllocationEv.exit: ; preds = %1, %10
  %.0.i.i = phi ptr [ %11, %10 ], [ %9, %1 ]
  %12 = icmp eq ptr %.0.i.i, null
  br i1 %12, label %13, label %17

13:                                               ; preds = %_ZNK6google8protobuf11MessageLite21GetArenaForAllocationEv.exit
  %14 = getelementptr inbounds nuw i8, ptr %0, i64 40
  %15 = load ptr, ptr %14, align 8, !tbaa !57
  %.not = icmp eq ptr %15, null
  br i1 %.not, label %17, label %16

16:                                               ; preds = %13
  tail call void @_ZN17opencv_tensorflow9AttrValueD1Ev(ptr noundef nonnull align 8 dereferenceable(32) %15) #19
  tail call void @_ZdlPv(ptr noundef nonnull %15) #20
  %.pre = load i64, ptr %5, align 8, !tbaa !3
  %.pre8 = and i64 %.pre, 1
  %.pre9 = and i64 %.pre, -4
  %.pre11 = inttoptr i64 %.pre9 to ptr
  br label %17

17:                                               ; preds = %16, %13, %_ZNK6google8protobuf11MessageLite21GetArenaForAllocationEv.exit
  %.pre-phi12 = phi ptr [ %.pre11, %16 ], [ %9, %13 ], [ %9, %_ZNK6google8protobuf11MessageLite21GetArenaForAllocationEv.exit ]
  %.pre-phi = phi i64 [ %.pre8, %16 ], [ %7, %13 ], [ %7, %_ZNK6google8protobuf11MessageLite21GetArenaForAllocationEv.exit ]
  %18 = getelementptr inbounds nuw i8, ptr %0, i64 40
  store ptr null, ptr %18, align 8, !tbaa !57
  %.not.i3 = icmp eq i64 %.pre-phi, 0
  br i1 %.not.i3, label %_ZNK6google8protobuf11MessageLite21GetArenaForAllocationEv.exit5, label %19, !prof !16

19:                                               ; preds = %17
  %20 = load ptr, ptr %.pre-phi12, align 8, !tbaa !17
  br label %_ZNK6google8protobuf11MessageLite21GetArenaForAllocationEv.exit5

_ZNK6google8protobuf11MessageLite21GetArenaForAllocationEv.exit5: ; preds = %17, %19
  %.0.i.i4 = phi ptr [ %20, %19 ], [ %.pre-phi12, %17 ]
  %21 = icmp eq ptr %.0.i.i4, null
  br i1 %21, label %22, label %26

22:                                               ; preds = %_ZNK6google8protobuf11MessageLite21GetArenaForAllocationEv.exit5
  %23 = getelementptr inbounds nuw i8, ptr %0, i64 48
  %24 = load ptr, ptr %23, align 8, !tbaa !60
  %.not2 = icmp eq ptr %24, null
  br i1 %.not2, label %26, label %25

25:                                               ; preds = %22
  tail call void @_ZN17opencv_tensorflow9AttrValueD1Ev(ptr noundef nonnull align 8 dereferenceable(32) %24) #19
  tail call void @_ZdlPv(ptr noundef nonnull %24) #20
  %.pre7 = load i64, ptr %5, align 8, !tbaa !3
  %.pre13 = and i64 %.pre7, 1
  br label %26

26:                                               ; preds = %25, %22, %_ZNK6google8protobuf11MessageLite21GetArenaForAllocationEv.exit5
  %.pre-phi14 = phi i64 [ %.pre13, %25 ], [ %.pre-phi, %22 ], [ %.pre-phi, %_ZNK6google8protobuf11MessageLite21GetArenaForAllocationEv.exit5 ]
  %27 = getelementptr inbounds nuw i8, ptr %0, i64 48
  %.not6 = icmp eq i64 %.pre-phi14, 0
  tail call void @llvm.memset.p0.i64(ptr noundef nonnull align 8 dereferenceable(17) %27, i8 0, i64 17, i1 false)
  br i1 %.not6, label %_ZN6google8protobuf8internal16InternalMetadata5ClearINS0_15UnknownFieldSetEEEvv.exit, label %28

28:                                               ; preds = %26
  tail call void @_ZN6google8protobuf8internal16InternalMetadata7DoClearINS0_15UnknownFieldSetEEEvv(ptr noundef nonnull align 8 dereferenceable(8) %5)
  br label %_ZN6google8protobuf8internal16InternalMetadata5ClearINS0_15UnknownFieldSetEEEvv.exit

_ZN6google8protobuf8internal16InternalMetadata5ClearINS0_15UnknownFieldSetEEEvv.exit: ; preds = %26, %28
  ret void
}